target datalayout = "e-m:e-p270:32:32-p271:32:32-p272:64:64-i64:64-i128:128-f80:128-n8:16:32:64-S128"
target triple = "x86_64-pc-linux-gnu"

%"class.clang::DeclContext" = type { ptr, %union.anon.374, ptr, ptr }
%union.anon.374 = type { %"class.clang::DeclContext::RecordDeclBitfields" }
%"class.clang::DeclContext::RecordDeclBitfields" = type { i64 }

@.str = private unnamed_addr constant [16 x i8] c"TranslationUnit\00", align 1
@.str.1 = private unnamed_addr constant [13 x i8] c"TopLevelStmt\00", align 1
@.str.2 = private unnamed_addr constant [17 x i8] c"RequiresExprBody\00", align 1
@.str.3 = private unnamed_addr constant [12 x i8] c"LinkageSpec\00", align 1
@.str.4 = private unnamed_addr constant [15 x i8] c"ExternCContext\00", align 1
@.str.5 = private unnamed_addr constant [7 x i8] c"Export\00", align 1
@.str.6 = private unnamed_addr constant [9 x i8] c"Captured\00", align 1
@.str.7 = private unnamed_addr constant [6 x i8] c"Block\00", align 1
@.str.8 = private unnamed_addr constant [13 x i8] c"StaticAssert\00", align 1
@.str.9 = private unnamed_addr constant [21 x i8] c"PragmaDetectMismatch\00", align 1
@.str.10 = private unnamed_addr constant [14 x i8] c"PragmaComment\00", align 1
@.str.11 = private unnamed_addr constant [17 x i8] c"ObjCPropertyImpl\00", align 1
@.str.12 = private unnamed_addr constant [17 x i8] c"OMPThreadPrivate\00", align 1
@.str.13 = private unnamed_addr constant [12 x i8] c"OMPRequires\00", align 1
@.str.14 = private unnamed_addr constant [12 x i8] c"OMPAllocate\00", align 1
@.str.15 = private unnamed_addr constant [11 x i8] c"ObjCMethod\00", align 1
@.str.16 = private unnamed_addr constant [13 x i8] c"ObjCProtocol\00", align 1
@.str.17 = private unnamed_addr constant [14 x i8] c"ObjCInterface\00", align 1
@.str.18 = private unnamed_addr constant [19 x i8] c"ObjCImplementation\00", align 1
@.str.19 = private unnamed_addr constant [17 x i8] c"ObjCCategoryImpl\00", align 1
@.str.20 = private unnamed_addr constant [13 x i8] c"ObjCCategory\00", align 1
@.str.21 = private unnamed_addr constant [10 x i8] c"Namespace\00", align 1
@.str.22 = private unnamed_addr constant [11 x i8] c"HLSLBuffer\00", align 1
@.str.23 = private unnamed_addr constant [20 x i8] c"OMPDeclareReduction\00", align 1
@.str.24 = private unnamed_addr constant [17 x i8] c"OMPDeclareMapper\00", align 1
@.str.25 = private unnamed_addr constant [21 x i8] c"UnresolvedUsingValue\00", align 1
@.str.26 = private unnamed_addr constant [22 x i8] c"UnnamedGlobalConstant\00", align 1
@.str.27 = private unnamed_addr constant [20 x i8] c"TemplateParamObject\00", align 1
@.str.28 = private unnamed_addr constant [7 x i8] c"MSGuid\00", align 1
@.str.29 = private unnamed_addr constant [14 x i8] c"IndirectField\00", align 1
@.str.30 = private unnamed_addr constant [13 x i8] c"EnumConstant\00", align 1
@.str.31 = private unnamed_addr constant [9 x i8] c"Function\00", align 1
@.str.32 = private unnamed_addr constant [10 x i8] c"CXXMethod\00", align 1
@.str.33 = private unnamed_addr constant [14 x i8] c"CXXDestructor\00", align 1
@.str.34 = private unnamed_addr constant [14 x i8] c"CXXConversion\00", align 1
@.str.35 = private unnamed_addr constant [15 x i8] c"CXXConstructor\00", align 1
@.str.36 = private unnamed_addr constant [18 x i8] c"CXXDeductionGuide\00", align 1
@.str.37 = private unnamed_addr constant [4 x i8] c"Var\00", align 1
@.str.38 = private unnamed_addr constant [26 x i8] c"VarTemplateSpecialization\00", align 1
@.str.39 = private unnamed_addr constant [33 x i8] c"VarTemplatePartialSpecialization\00", align 1
@.str.40 = private unnamed_addr constant [8 x i8] c"ParmVar\00", align 1
@.str.41 = private unnamed_addr constant [16 x i8] c"OMPCapturedExpr\00", align 1
@.str.42 = private unnamed_addr constant [14 x i8] c"ImplicitParam\00", align 1
@.str.43 = private unnamed_addr constant [14 x i8] c"Decomposition\00", align 1
@.str.44 = private unnamed_addr constant [20 x i8] c"NonTypeTemplateParm\00", align 1
@.str.45 = private unnamed_addr constant [11 x i8] c"MSProperty\00", align 1
@.str.46 = private unnamed_addr constant [6 x i8] c"Field\00", align 1
@.str.47 = private unnamed_addr constant [9 x i8] c"ObjCIvar\00", align 1
@.str.48 = private unnamed_addr constant [16 x i8] c"ObjCAtDefsField\00", align 1
@.str.49 = private unnamed_addr constant [8 x i8] c"Binding\00", align 1
@.str.50 = private unnamed_addr constant [12 x i8] c"UsingShadow\00", align 1
@.str.51 = private unnamed_addr constant [23 x i8] c"ConstructorUsingShadow\00", align 1
@.str.52 = private unnamed_addr constant [10 x i8] c"UsingPack\00", align 1
@.str.53 = private unnamed_addr constant [15 x i8] c"UsingDirective\00", align 1
@.str.54 = private unnamed_addr constant [24 x i8] c"UnresolvedUsingIfExists\00", align 1
@.str.55 = private unnamed_addr constant [7 x i8] c"Record\00", align 1
@.str.56 = private unnamed_addr constant [10 x i8] c"CXXRecord\00", align 1
@.str.57 = private unnamed_addr constant [28 x i8] c"ClassTemplateSpecialization\00", align 1
@.str.58 = private unnamed_addr constant [35 x i8] c"ClassTemplatePartialSpecialization\00", align 1
@.str.59 = private unnamed_addr constant [5 x i8] c"Enum\00", align 1
@.str.60 = private unnamed_addr constant [24 x i8] c"UnresolvedUsingTypename\00", align 1
@.str.61 = private unnamed_addr constant [8 x i8] c"Typedef\00", align 1
@.str.62 = private unnamed_addr constant [10 x i8] c"TypeAlias\00", align 1
@.str.63 = private unnamed_addr constant [14 x i8] c"ObjCTypeParam\00", align 1
@.str.64 = private unnamed_addr constant [17 x i8] c"TemplateTypeParm\00", align 1
@.str.65 = private unnamed_addr constant [21 x i8] c"TemplateTemplateParm\00", align 1
@.str.66 = private unnamed_addr constant [12 x i8] c"VarTemplate\00", align 1
@.str.67 = private unnamed_addr constant [18 x i8] c"TypeAliasTemplate\00", align 1
@.str.68 = private unnamed_addr constant [17 x i8] c"FunctionTemplate\00", align 1
@.str.69 = private unnamed_addr constant [14 x i8] c"ClassTemplate\00", align 1
@.str.70 = private unnamed_addr constant [8 x i8] c"Concept\00", align 1
@.str.71 = private unnamed_addr constant [16 x i8] c"BuiltinTemplate\00", align 1
@.str.72 = private unnamed_addr constant [13 x i8] c"ObjCProperty\00", align 1
@.str.73 = private unnamed_addr constant [20 x i8] c"ObjCCompatibleAlias\00", align 1
@.str.74 = private unnamed_addr constant [15 x i8] c"NamespaceAlias\00", align 1
@.str.75 = private unnamed_addr constant [6 x i8] c"Label\00", align 1
@.str.76 = private unnamed_addr constant [10 x i8] c"UsingEnum\00", align 1
@.str.77 = private unnamed_addr constant [6 x i8] c"Using\00", align 1
@.str.78 = private unnamed_addr constant [26 x i8] c"LifetimeExtendedTemporary\00", align 1
@.str.79 = private unnamed_addr constant [7 x i8] c"Import\00", align 1
@.str.80 = private unnamed_addr constant [30 x i8] c"ImplicitConceptSpecialization\00", align 1
@.str.81 = private unnamed_addr constant [15 x i8] c"FriendTemplate\00", align 1
@.str.82 = private unnamed_addr constant [7 x i8] c"Friend\00", align 1
@.str.83 = private unnamed_addr constant [13 x i8] c"FileScopeAsm\00", align 1
@.str.84 = private unnamed_addr constant [6 x i8] c"Empty\00", align 1
@.str.85 = private unnamed_addr constant [11 x i8] c"AccessSpec\00", align 1

; Function Attrs: mustprogress nounwind uwtable
define linkonce_odr hidden noundef i32 @_ZNK5clang11DeclContext11getDeclKindEv(ptr noundef nonnull align 8 dereferenceable(32) %0) #0 comdat align 2 {
  %2 = alloca ptr, align 8
  store ptr %0, ptr %2, align 8
  %3 = load ptr, ptr %2, align 8
  %4 = getelementptr inbounds nuw %"class.clang::DeclContext", ptr %3, i32 0, i32 1
  %5 = load i16, ptr %4, align 8
  %6 = and i16 %5, 127
  %7 = zext i16 %6 to i64
  %8 = trunc i64 %7 to i32
  ret i32 %8
}

; Function Attrs: mustprogress nounwind uwtable
define dso_local noundef ptr @_ZNK5clang11DeclContext15getDeclKindNameEv(ptr noundef nonnull align 8 dereferenceable(32) %0) #0 align 2 {
  %2 = alloca ptr, align 8
  %3 = alloca ptr, align 8
  store ptr %0, ptr %3, align 8
  %4 = load ptr, ptr %3, align 8
  %5 = call noundef i32 @_ZNK5clang11DeclContext11getDeclKindEv(ptr noundef nonnull align 8 dereferenceable(32) %4)
  switch i32 %5, label %92 [
    i32 0, label %6
    i32 1, label %7
    i32 2, label %8
    i32 3, label %9
    i32 4, label %10
    i32 5, label %11
    i32 6, label %12
    i32 7, label %13
    i32 8, label %14
    i32 9, label %15
    i32 10, label %16
    i32 11, label %17
    i32 12, label %18
    i32 13, label %19
    i32 14, label %20
    i32 15, label %21
    i32 16, label %22
    i32 17, label %23
    i32 18, label %24
    i32 19, label %25
    i32 20, label %26
    i32 21, label %27
    i32 22, label %28
    i32 23, label %29
    i32 24, label %30
    i32 25, label %31
    i32 26, label %32
    i32 27, label %33
    i32 28, label %34
    i32 29, label %35
    i32 30, label %36
    i32 31, label %37
    i32 32, label %38
    i32 33, label %39
    i32 34, label %40
    i32 35, label %41
    i32 36, label %42
    i32 37, label %43
    i32 38, label %44
    i32 39, label %45
    i32 40, label %46
    i32 41, label %47
    i32 42, label %48
    i32 43, label %49
    i32 44, label %50
    i32 45, label %51
    i32 46, label %52
    i32 47, label %53
    i32 48, label %54
    i32 49, label %55
    i32 50, label %56
    i32 51, label %57
    i32 52, label %58
    i32 53, label %59
    i32 54, label %60
    i32 55, label %61
    i32 56, label %62
    i32 57, label %63
    i32 58, label %64
    i32 59, label %65
    i32 60, label %66
    i32 61, label %67
    i32 62, label %68
    i32 63, label %69
    i32 64, label %70
    i32 65, label %71
    i32 66, label %72
    i32 67, label %73
    i32 68, label %74
    i32 69, label %75
    i32 70, label %76
    i32 71, label %77
    i32 72, label %78
    i32 73, label %79
    i32 74, label %80
    i32 75, label %81
    i32 76, label %82
    i32 77, label %83
    i32 78, label %84
    i32 79, label %85
    i32 80, label %86
    i32 81, label %87
    i32 82, label %88
    i32 83, label %89
    i32 84, label %90
    i32 85, label %91
  ]

6:                                                ; preds = %1
  store ptr @.str, ptr %2, align 8
  br label %93

7:                                                ; preds = %1
  store ptr @.str.1, ptr %2, align 8
  br label %93

8:                                                ; preds = %1
  store ptr @.str.2, ptr %2, align 8
  br label %93

9:                                                ; preds = %1
  store ptr @.str.3, ptr %2, align 8
  br label %93

10:                                               ; preds = %1
  store ptr @.str.4, ptr %2, align 8
  br label %93

11:                                               ; preds = %1
  store ptr @.str.5, ptr %2, align 8
  br label %93

12:                                               ; preds = %1
  store ptr @.str.6, ptr %2, align 8
  br label %93

13:                                               ; preds = %1
  store ptr @.str.7, ptr %2, align 8
  br label %93

14:                                               ; preds = %1
  store ptr @.str.8, ptr %2, align 8
  br label %93

15:                                               ; preds = %1
  store ptr @.str.9, ptr %2, align 8
  br label %93

16:                                               ; preds = %1
  store ptr @.str.10, ptr %2, align 8
  br label %93

17:                                               ; preds = %1
  store ptr @.str.11, ptr %2, align 8
  br label %93

18:                                               ; preds = %1
  store ptr @.str.12, ptr %2, align 8
  br label %93

19:                                               ; preds = %1
  store ptr @.str.13, ptr %2, align 8
  br label %93

20:                                               ; preds = %1
  store ptr @.str.14, ptr %2, align 8
  br label %93

21:                                               ; preds = %1
  store ptr @.str.15, ptr %2, align 8
  br label %93

22:                                               ; preds = %1
  store ptr @.str.16, ptr %2, align 8
  br label %93

23:                                               ; preds = %1
  store ptr @.str.17, ptr %2, align 8
  br label %93

24:                                               ; preds = %1
  store ptr @.str.18, ptr %2, align 8
  br label %93

25:                                               ; preds = %1
  store ptr @.str.19, ptr %2, align 8
  br label %93

26:                                               ; preds = %1
  store ptr @.str.20, ptr %2, align 8
  br label %93

27:                                               ; preds = %1
  store ptr @.str.21, ptr %2, align 8
  br label %93

28:                                               ; preds = %1
  store ptr @.str.22, ptr %2, align 8
  br label %93

29:                                               ; preds = %1
  store ptr @.str.23, ptr %2, align 8
  br label %93

30:                                               ; preds = %1
  store ptr @.str.24, ptr %2, align 8
  br label %93

31:                                               ; preds = %1
  store ptr @.str.25, ptr %2, align 8
  br label %93

32:                                               ; preds = %1
  store ptr @.str.26, ptr %2, align 8
  br label %93

33:                                               ; preds = %1
  store ptr @.str.27, ptr %2, align 8
  br label %93

34:                                               ; preds = %1
  store ptr @.str.28, ptr %2, align 8
  br label %93

35:                                               ; preds = %1
  store ptr @.str.29, ptr %2, align 8
  br label %93

36:                                               ; preds = %1
  store ptr @.str.30, ptr %2, align 8
  br label %93

37:                                               ; preds = %1
  store ptr @.str.31, ptr %2, align 8
  br label %93

38:                                               ; preds = %1
  store ptr @.str.32, ptr %2, align 8
  br label %93

39:                                               ; preds = %1
  store ptr @.str.33, ptr %2, align 8
  br label %93

40:                                               ; preds = %1
  store ptr @.str.34, ptr %2, align 8
  br label %93

41:                                               ; preds = %1
  store ptr @.str.35, ptr %2, align 8
  br label %93

42:                                               ; preds = %1
  store ptr @.str.36, ptr %2, align 8
  br label %93

43:                                               ; preds = %1
  store ptr @.str.37, ptr %2, align 8
  br label %93

44:                                               ; preds = %1
  store ptr @.str.38, ptr %2, align 8
  br label %93

45:                                               ; preds = %1
  store ptr @.str.39, ptr %2, align 8
  br label %93

46:                                               ; preds = %1
  store ptr @.str.40, ptr %2, align 8
  br label %93

47:                                               ; preds = %1
  store ptr @.str.41, ptr %2, align 8
  br label %93

48:                                               ; preds = %1
  store ptr @.str.42, ptr %2, align 8
  br label %93

49:                                               ; preds = %1
  store ptr @.str.43, ptr %2, align 8
  br label %93

50:                                               ; preds = %1
  store ptr @.str.44, ptr %2, align 8
  br label %93

51:                                               ; preds = %1
  store ptr @.str.45, ptr %2, align 8
  br label %93

52:                                               ; preds = %1
  store ptr @.str.46, ptr %2, align 8
  br label %93

53:                                               ; preds = %1
  store ptr @.str.47, ptr %2, align 8
  br label %93

54:                                               ; preds = %1
  store ptr @.str.48, ptr %2, align 8
  br label %93

55:                                               ; preds = %1
  store ptr @.str.49, ptr %2, align 8
  br label %93

56:                                               ; preds = %1
  store ptr @.str.50, ptr %2, align 8
  br label %93

57:                                               ; preds = %1
  store ptr @.str.51, ptr %2, align 8
  br label %93

58:                                               ; preds = %1
  store ptr @.str.52, ptr %2, align 8
  br label %93

59:                                               ; preds = %1
  store ptr @.str.53, ptr %2, align 8
  br label %93

60:                                               ; preds = %1
  store ptr @.str.54, ptr %2, align 8
  br label %93

61:                                               ; preds = %1
  store ptr @.str.55, ptr %2, align 8
  br label %93

62:                                               ; preds = %1
  store ptr @.str.56, ptr %2, align 8
  br label %93

63:                                               ; preds = %1
  store ptr @.str.57, ptr %2, align 8
  br label %93

64:                                               ; preds = %1
  store ptr @.str.58, ptr %2, align 8
  br label %93

65:                                               ; preds = %1
  store ptr @.str.59, ptr %2, align 8
  br label %93

66:                                               ; preds = %1
  store ptr @.str.60, ptr %2, align 8
  br label %93

67:                                               ; preds = %1
  store ptr @.str.61, ptr %2, align 8
  br label %93

68:                                               ; preds = %1
  store ptr @.str.62, ptr %2, align 8
  br label %93

69:                                               ; preds = %1
  store ptr @.str.63, ptr %2, align 8
  br label %93

70:                                               ; preds = %1
  store ptr @.str.64, ptr %2, align 8
  br label %93

71:                                               ; preds = %1
  store ptr @.str.65, ptr %2, align 8
  br label %93

72:                                               ; preds = %1
  store ptr @.str.66, ptr %2, align 8
  br label %93

73:                                               ; preds = %1
  store ptr @.str.67, ptr %2, align 8
  br label %93

74:                                               ; preds = %1
  store ptr @.str.68, ptr %2, align 8
  br label %93

75:                                               ; preds = %1
  store ptr @.str.69, ptr %2, align 8
  br label %93

76:                                               ; preds = %1
  store ptr @.str.70, ptr %2, align 8
  br label %93

77:                                               ; preds = %1
  store ptr @.str.71, ptr %2, align 8
  br label %93

78:                                               ; preds = %1
  store ptr @.str.72, ptr %2, align 8
  br label %93

79:                                               ; preds = %1
  store ptr @.str.73, ptr %2, align 8
  br label %93

80:                                               ; preds = %1
  store ptr @.str.74, ptr %2, align 8
  br label %93

81:                                               ; preds = %1
  store ptr @.str.75, ptr %2, align 8
  br label %93

82:                                               ; preds = %1
  store ptr @.str.76, ptr %2, align 8
  br label %93

83:                                               ; preds = %1
  store ptr @.str.77, ptr %2, align 8
  br label %93

84:                                               ; preds = %1
  store ptr @.str.78, ptr %2, align 8
  br label %93

85:                                               ; preds = %1
  store ptr @.str.79, ptr %2, align 8
  br label %93

86:                                               ; preds = %1
  store ptr @.str.80, ptr %2, align 8
  br label %93

87:                                               ; preds = %1
  store ptr @.str.81, ptr %2, align 8
  br label %93

88:                                               ; preds = %1
  store ptr @.str.82, ptr %2, align 8
  br label %93

89:                                               ; preds = %1
  store ptr @.str.83, ptr %2, align 8
  br label %93

90:                                               ; preds = %1
  store ptr @.str.84, ptr %2, align 8
  br label %93

91:                                               ; preds = %1
  store ptr @.str.85, ptr %2, align 8
  br label %93

92:                                               ; preds = %1
  unreachable

93:                                               ; preds = %91, %90, %89, %88, %87, %86, %85, %84, %83, %82, %81, %80, %79, %78, %77, %76, %75, %74, %73, %72, %71, %70, %69, %68, %67, %66, %65, %64, %63, %62, %61, %60, %59, %58, %57, %56, %55, %54, %53, %52, %51, %50, %49, %48, %47, %46, %45, %44, %43, %42, %41, %40, %39, %38, %37, %36, %35, %34, %33, %32, %31, %30, %29, %28, %27, %26, %25, %24, %23, %22, %21, %20, %19, %18, %17, %16, %15, %14, %13, %12, %11, %10, %9, %8, %7, %6
  %94 = load ptr, ptr %2, align 8
  ret ptr %94
}