; Function Attrs: mustprogress nofree norecurse nosync nounwind willreturn memory(argmem: read) uwtable
define dso_local noundef nonnull ptr @_ZNK5clang11DeclContext15getDeclKindNameEv(ptr nocapture noundef nonnull readonly align 8 dereferenceable(32) %0) local_unnamed_addr #2 align 2 {
switch.lookup:
  %1 = getelementptr inbounds nuw i8, ptr %0, i64 8
  %2 = load i16, ptr %1, align 8
  %3 = and i16 %2, 127
  %4 = zext nneg i16 %3 to i64
  %switch.gep = getelementptr inbounds [86 x ptr], ptr @switch.table._ZNK5clang11DeclContext15getDeclKindNameEv, i64 0, i64 %4
  %switch.load = load ptr, ptr %switch.gep, align 8
  ret ptr %switch.load
}